target datalayout = "e-m:e-p270:32:32-p271:32:32-p272:64:64-i64:64-i128:128-f80:128-n8:16:32:64-S128"
target triple = "x86_64-pc-linux-gnu"

%struct.global_stats = type { ptr, i64, ptr, i64, ptr }
%struct.timeval = type { i64, i64 }
%struct.connection = type { i32, ptr, i32, %struct.timeval, ptr, i32 }

@global = internal global %struct.global_stats zeroinitializer, align 8
@normal_exit = internal global i32 0, align 4
@curses_inited = internal global i32 0, align 4
@status_bar_window = internal global ptr null, align 8
@curses_scr = internal global ptr null, align 8
@.str.5 = private unnamed_addr constant [6 x i8] c"nEND\0A\00", align 1
@queue_header = internal global ptr null, align 8
@multi_queue_header = internal global ptr null, align 8
@clamd_header = internal global ptr null, align 8
@stderr = external global ptr, align 8
@.str.6 = private unnamed_addr constant [29 x i8] c"Abnormal program termination\00", align 1
@exit_reason = internal global ptr null, align 8
@.str.7 = private unnamed_addr constant [5 x i8] c": %s\00", align 1
@exit_func = internal global ptr null, align 8
@.str.8 = private unnamed_addr constant [7 x i8] c" in %s\00", align 1
@exit_line = internal global i32 0, align 4
@.str.9 = private unnamed_addr constant [12 x i8] c" at line %u\00", align 1
@header_window = internal global ptr null, align 8
@mem_window = internal global ptr null, align 8
@stats_window = internal global ptr null, align 8
@stats_head_window = internal global ptr null, align 8
@.str.10 = private unnamed_addr constant [4 x i8] c"cmd\00", align 1
@.str.11 = private unnamed_addr constant [111 x i8] c"generated/home/dtcxzyw/WorkSpace/Projects/compilers/llvm-opt-benchmark/bench/clamav/clamav/clamdtop/clamdtop.c\00", align 1
@__PRETTY_FUNCTION__.send_string_noreconn = private unnamed_addr constant [49 x i8] c"int send_string_noreconn(conn_t *, const char *)\00", align 1
@.str.12 = private unnamed_addr constant [21 x i8] c"conn && conn->sd > 0\00", align 1

; Function Attrs: nounwind uwtable
define internal i32 @send_string_noreconn(ptr noundef %0, ptr noundef %1) #0 {
  %3 = alloca ptr, align 8
  %4 = alloca ptr, align 8
  store ptr %0, ptr %3, align 8
  store ptr %1, ptr %4, align 8
  %5 = load ptr, ptr %4, align 8
  %6 = icmp ne ptr %5, null
  br i1 %6, label %7, label %8

7:                                                ; preds = %2
  br label %9

8:                                                ; preds = %2
  call void @__assert_fail(ptr noundef @.str.10, ptr noundef @.str.11, i32 noundef 823, ptr noundef @__PRETTY_FUNCTION__.send_string_noreconn) #17
  unreachable

9:                                                ; preds = %7
  %10 = load ptr, ptr %3, align 8
  %11 = icmp ne ptr %10, null
  br i1 %11, label %12, label %18

12:                                               ; preds = %9
  %13 = load ptr, ptr %3, align 8
  %14 = getelementptr inbounds %struct.connection, ptr %13, i32 0, i32 0
  %15 = load i32, ptr %14, align 8
  %16 = icmp sgt i32 %15, 0
  br i1 %16, label %17, label %18

17:                                               ; preds = %12
  br label %19

18:                                               ; preds = %12, %9
  call void @__assert_fail(ptr noundef @.str.12, ptr noundef @.str.11, i32 noundef 824, ptr noundef @__PRETTY_FUNCTION__.send_string_noreconn) #17
  unreachable

19:                                               ; preds = %17
  %20 = load ptr, ptr %3, align 8
  %21 = getelementptr inbounds %struct.connection, ptr %20, i32 0, i32 0
  %22 = load i32, ptr %21, align 8
  %23 = load ptr, ptr %4, align 8
  %24 = load ptr, ptr %4, align 8
  %25 = call i64 @strlen(ptr noundef %24) #14
  %26 = call i64 @send(i32 noundef %22, ptr noundef %23, i64 noundef %25, i32 noundef 0)
  %27 = trunc i64 %26 to i32
  ret i32 %27
}

; Function Attrs: nounwind uwtable
define internal void @rm_windows() #0 {
  %1 = load ptr, ptr @header_window, align 8
  %2 = icmp ne ptr %1, null
  br i1 %2, label %3, label %6

3:                                                ; preds = %0
  %4 = load ptr, ptr @header_window, align 8
  %5 = call i32 @delwin(ptr noundef %4)
  store ptr null, ptr @header_window, align 8
  br label %6

6:                                                ; preds = %3, %0
  %7 = load ptr, ptr @mem_window, align 8
  %8 = icmp ne ptr %7, null
  br i1 %8, label %9, label %12

9:                                                ; preds = %6
  %10 = load ptr, ptr @mem_window, align 8
  %11 = call i32 @delwin(ptr noundef %10)
  store ptr null, ptr @mem_window, align 8
  br label %12

12:                                               ; preds = %9, %6
  %13 = load ptr, ptr @stats_window, align 8
  %14 = icmp ne ptr %13, null
  br i1 %14, label %15, label %18

15:                                               ; preds = %12
  %16 = load ptr, ptr @stats_window, align 8
  %17 = call i32 @delwin(ptr noundef %16)
  store ptr null, ptr @stats_window, align 8
  br label %18

18:                                               ; preds = %15, %12
  %19 = load ptr, ptr @stats_head_window, align 8
  %20 = icmp ne ptr %19, null
  br i1 %20, label %21, label %24

21:                                               ; preds = %18
  %22 = load ptr, ptr @stats_head_window, align 8
  %23 = call i32 @delwin(ptr noundef %22)
  store ptr null, ptr @stats_head_window, align 8
  br label %24

24:                                               ; preds = %21, %18
  %25 = load ptr, ptr @status_bar_window, align 8
  %26 = icmp ne ptr %25, null
  br i1 %26, label %27, label %30

27:                                               ; preds = %24
  %28 = load ptr, ptr @status_bar_window, align 8
  %29 = call i32 @delwin(ptr noundef %28)
  store ptr null, ptr @status_bar_window, align 8
  br label %30

30:                                               ; preds = %27, %24
  ret void
}

; Function Attrs: nounwind uwtable
define internal void @cleanup() #0 {
  %1 = alloca i32, align 4
  %2 = load i32, ptr @curses_inited, align 4
  %3 = icmp ne i32 %2, 0
  br i1 %3, label %4, label %15

4:                                                ; preds = %0
  %5 = load ptr, ptr @status_bar_window, align 8
  %6 = icmp ne ptr %5, null
  br i1 %6, label %7, label %12

7:                                                ; preds = %4
  %8 = load ptr, ptr @status_bar_window, align 8
  %9 = call i32 @werase(ptr noundef %8)
  %10 = load ptr, ptr @status_bar_window, align 8
  %11 = call i32 @wrefresh(ptr noundef %10)
  br label %12

12:                                               ; preds = %7, %4
  call void @rm_windows()
  %13 = call i32 @endwin()
  %14 = load ptr, ptr @curses_scr, align 8
  call void @delscreen(ptr noundef %14)
  br label %15

15:                                               ; preds = %12, %0
  store i32 0, ptr @curses_inited, align 4
  store i32 0, ptr %1, align 4
  br label %16

16:                                               ; preds = %63, %15
  %17 = load i32, ptr %1, align 4
  %18 = zext i32 %17 to i64
  %19 = load i64, ptr getelementptr inbounds (%struct.global_stats, ptr @global, i32 0, i32 3), align 8
  %20 = icmp ult i64 %18, %19
  br i1 %20, label %21, label %66

21:                                               ; preds = %16
  %22 = load ptr, ptr getelementptr inbounds (%struct.global_stats, ptr @global, i32 0, i32 4), align 8
  %23 = load i32, ptr %1, align 4
  %24 = zext i32 %23 to i64
  %25 = getelementptr inbounds %struct.connection, ptr %22, i64 %24
  %26 = getelementptr inbounds %struct.connection, ptr %25, i32 0, i32 0
  %27 = load i32, ptr %26, align 8
  %28 = icmp ne i32 %27, 0
  br i1 %28, label %29, label %50

29:                                               ; preds = %21
  %30 = load ptr, ptr getelementptr inbounds (%struct.global_stats, ptr @global, i32 0, i32 4), align 8
  %31 = load i32, ptr %1, align 4
  %32 = zext i32 %31 to i64
  %33 = getelementptr inbounds %struct.connection, ptr %30, i64 %32
  %34 = getelementptr inbounds %struct.connection, ptr %33, i32 0, i32 0
  %35 = load i32, ptr %34, align 8
  %36 = icmp ne i32 %35, -1
  br i1 %36, label %37, label %50

37:                                               ; preds = %29
  %38 = load ptr, ptr getelementptr inbounds (%struct.global_stats, ptr @global, i32 0, i32 4), align 8
  %39 = load i32, ptr %1, align 4
  %40 = zext i32 %39 to i64
  %41 = getelementptr inbounds %struct.connection, ptr %38, i64 %40
  %42 = call i32 @send_string_noreconn(ptr noundef %41, ptr noundef @.str.5)
  %43 = load ptr, ptr getelementptr inbounds (%struct.global_stats, ptr @global, i32 0, i32 4), align 8
  %44 = load i32, ptr %1, align 4
  %45 = zext i32 %44 to i64
  %46 = getelementptr inbounds %struct.connection, ptr %43, i64 %45
  %47 = getelementptr inbounds %struct.connection, ptr %46, i32 0, i32 0
  %48 = load i32, ptr %47, align 8
  %49 = call i32 @close(i32 noundef %48)
  br label %50

50:                                               ; preds = %37, %29, %21
  %51 = load ptr, ptr getelementptr inbounds (%struct.global_stats, ptr @global, i32 0, i32 4), align 8
  %52 = load i32, ptr %1, align 4
  %53 = zext i32 %52 to i64
  %54 = getelementptr inbounds %struct.connection, ptr %51, i64 %53
  %55 = getelementptr inbounds %struct.connection, ptr %54, i32 0, i32 4
  %56 = load ptr, ptr %55, align 8
  call void @free(ptr noundef %56) #13
  %57 = load ptr, ptr getelementptr inbounds (%struct.global_stats, ptr @global, i32 0, i32 4), align 8
  %58 = load i32, ptr %1, align 4
  %59 = zext i32 %58 to i64
  %60 = getelementptr inbounds %struct.connection, ptr %57, i64 %59
  %61 = getelementptr inbounds %struct.connection, ptr %60, i32 0, i32 1
  %62 = load ptr, ptr %61, align 8
  call void @free(ptr noundef %62) #13
  br label %63

63:                                               ; preds = %50
  %64 = load i32, ptr %1, align 4
  %65 = add i32 %64, 1
  store i32 %65, ptr %1, align 4
  br label %16

66:                                               ; preds = %16
  %67 = load ptr, ptr getelementptr inbounds (%struct.global_stats, ptr @global, i32 0, i32 2), align 8
  call void @free(ptr noundef %67) #13
  %68 = load ptr, ptr getelementptr inbounds (%struct.global_stats, ptr @global, i32 0, i32 4), align 8
  call void @free(ptr noundef %68) #13
  %69 = load ptr, ptr @queue_header, align 8
  call void @free(ptr noundef %69) #13
  %70 = load i64, ptr getelementptr inbounds (%struct.global_stats, ptr @global, i32 0, i32 3), align 8
  %71 = icmp ugt i64 %70, 1
  br i1 %71, label %72, label %74

72:                                               ; preds = %66
  %73 = load ptr, ptr @multi_queue_header, align 8
  call void @free(ptr noundef %73) #13
  br label %74

74:                                               ; preds = %72, %66
  %75 = load ptr, ptr @clamd_header, align 8
  call void @free(ptr noundef %75) #13
  %76 = load i32, ptr @normal_exit, align 4
  %77 = icmp ne i32 %76, 0
  br i1 %77, label %104, label %78

78:                                               ; preds = %74
  %79 = load ptr, ptr @stderr, align 8
  %80 = call i32 (ptr, ptr, ...) @fprintf(ptr noundef %79, ptr noundef @.str.6) #13
  %81 = load ptr, ptr @exit_reason, align 8
  %82 = icmp ne ptr %81, null
  br i1 %82, label %83, label %87

83:                                               ; preds = %78
  %84 = load ptr, ptr @stderr, align 8
  %85 = load ptr, ptr @exit_reason, align 8
  %86 = call i32 (ptr, ptr, ...) @fprintf(ptr noundef %84, ptr noundef @.str.7, ptr noundef %85) #13
  br label %87

87:                                               ; preds = %83, %78
  %88 = load ptr, ptr @exit_func, align 8
  %89 = icmp ne ptr %88, null
  br i1 %89, label %90, label %94

90:                                               ; preds = %87
  %91 = load ptr, ptr @stderr, align 8
  %92 = load ptr, ptr @exit_func, align 8
  %93 = call i32 (ptr, ptr, ...) @fprintf(ptr noundef %91, ptr noundef @.str.8, ptr noundef %92) #13
  br label %94

94:                                               ; preds = %90, %87
  %95 = load i32, ptr @exit_line, align 4
  %96 = icmp ne i32 %95, 0
  br i1 %96, label %97, label %101

97:                                               ; preds = %94
  %98 = load ptr, ptr @stderr, align 8
  %99 = load i32, ptr @exit_line, align 4
  %100 = call i32 (ptr, ptr, ...) @fprintf(ptr noundef %98, ptr noundef @.str.9, i32 noundef %99) #13
  br label %101

101:                                              ; preds = %97, %94
  %102 = load ptr, ptr @stderr, align 8
  %103 = call i32 @fputc(i32 noundef 10, ptr noundef %102)
  br label %104

104:                                              ; preds = %101, %74
  ret void
}