; Function Attrs: nounwind uwtable
define internal void @cleanup() #0 {
  %.b14 = load i1, ptr @curses_inited, align 4
  br i1 %.b14, label %1, label %29

1:                                                ; preds = %0
  %2 = load ptr, ptr @status_bar_window, align 8
  %.not = icmp eq ptr %2, null
  br i1 %.not, label %7, label %3

3:                                                ; preds = %1
  %4 = tail call i32 @werase(ptr noundef nonnull %2) #25
  %5 = load ptr, ptr @status_bar_window, align 8
  %6 = tail call i32 @wrefresh(ptr noundef %5) #25
  br label %7

7:                                                ; preds = %3, %1
  %8 = load ptr, ptr @header_window, align 8
  %.not.i = icmp eq ptr %8, null
  br i1 %.not.i, label %11, label %9

9:                                                ; preds = %7
  %10 = tail call i32 @delwin(ptr noundef nonnull %8) #25
  store ptr null, ptr @header_window, align 8
  br label %11

11:                                               ; preds = %9, %7
  %12 = load ptr, ptr @mem_window, align 8
  %.not5.i = icmp eq ptr %12, null
  br i1 %.not5.i, label %15, label %13

13:                                               ; preds = %11
  %14 = tail call i32 @delwin(ptr noundef nonnull %12) #25
  store ptr null, ptr @mem_window, align 8
  br label %15

15:                                               ; preds = %13, %11
  %16 = load ptr, ptr @stats_window, align 8
  %.not6.i = icmp eq ptr %16, null
  br i1 %.not6.i, label %19, label %17

17:                                               ; preds = %15
  %18 = tail call i32 @delwin(ptr noundef nonnull %16) #25
  store ptr null, ptr @stats_window, align 8
  br label %19

19:                                               ; preds = %17, %15
  %20 = load ptr, ptr @stats_head_window, align 8
  %.not7.i = icmp eq ptr %20, null
  br i1 %.not7.i, label %23, label %21

21:                                               ; preds = %19
  %22 = tail call i32 @delwin(ptr noundef nonnull %20) #25
  store ptr null, ptr @stats_head_window, align 8
  br label %23

23:                                               ; preds = %21, %19
  %24 = load ptr, ptr @status_bar_window, align 8
  %.not8.i = icmp eq ptr %24, null
  br i1 %.not8.i, label %rm_windows.exit, label %25

25:                                               ; preds = %23
  %26 = tail call i32 @delwin(ptr noundef nonnull %24) #25
  store ptr null, ptr @status_bar_window, align 8
  br label %rm_windows.exit

rm_windows.exit:                                  ; preds = %23, %25
  %27 = tail call i32 @endwin() #25
  %28 = load ptr, ptr @curses_scr, align 8
  tail call void @delscreen(ptr noundef %28) #25
  br label %29

29:                                               ; preds = %rm_windows.exit, %0
  store i1 false, ptr @curses_inited, align 4
  %30 = load i64, ptr getelementptr inbounds (%struct.global_stats, ptr @global, i64 0, i32 3), align 8
  %.not23 = icmp eq i64 %30, 0
  br i1 %.not23, label %.critedge, label %.lr.ph.preheader

.lr.ph.preheader:                                 ; preds = %29
  %.pre = load ptr, ptr getelementptr inbounds (%struct.global_stats, ptr @global, i64 0, i32 4), align 8
  br label %.lr.ph

.lr.ph:                                           ; preds = %.lr.ph.preheader, %43
  %31 = phi ptr [ %44, %43 ], [ %.pre, %.lr.ph.preheader ]
  %32 = phi i64 [ %50, %43 ], [ 0, %.lr.ph.preheader ]
  %.022 = phi i32 [ %49, %43 ], [ 0, %.lr.ph.preheader ]
  %33 = getelementptr inbounds %struct.connection, ptr %31, i64 %32
  %34 = load i32, ptr %33, align 8
  switch i32 %34, label %35 [
    i32 0, label %43
    i32 -1, label %43
  ]

35:                                               ; preds = %.lr.ph
  %36 = icmp sgt i32 %34, 0
  br i1 %36, label %send_string_noreconn.exit, label %37

37:                                               ; preds = %35
  tail call void @__assert_fail(ptr noundef nonnull @.str.12, ptr noundef nonnull @.str.11, i32 noundef 824, ptr noundef nonnull @__PRETTY_FUNCTION__.send_string_noreconn) #30
  unreachable

send_string_noreconn.exit:                        ; preds = %35
  %38 = tail call i64 @send(i32 noundef %34, ptr noundef nonnull @.str.5, i64 noundef 5, i32 noundef 0) #25
  %39 = load ptr, ptr getelementptr inbounds (%struct.global_stats, ptr @global, i64 0, i32 4), align 8
  %40 = getelementptr inbounds %struct.connection, ptr %39, i64 %32
  %41 = load i32, ptr %40, align 8
  %42 = tail call i32 @close(i32 noundef %41) #25
  %.pre25 = load ptr, ptr getelementptr inbounds (%struct.global_stats, ptr @global, i64 0, i32 4), align 8
  br label %43

43:                                               ; preds = %.lr.ph, %.lr.ph, %send_string_noreconn.exit
  %44 = phi ptr [ %31, %.lr.ph ], [ %31, %.lr.ph ], [ %.pre25, %send_string_noreconn.exit ]
  %45 = getelementptr inbounds %struct.connection, ptr %44, i64 %32, i32 4
  %46 = load ptr, ptr %45, align 8
  tail call void @free(ptr noundef %46) #25
  %47 = getelementptr inbounds %struct.connection, ptr %44, i64 %32, i32 1
  %48 = load ptr, ptr %47, align 8
  tail call void @free(ptr noundef %48) #25
  %49 = add i32 %.022, 1
  %50 = zext i32 %49 to i64
  %51 = load i64, ptr getelementptr inbounds (%struct.global_stats, ptr @global, i64 0, i32 3), align 8
  %52 = icmp ugt i64 %51, %50
  br i1 %52, label %.lr.ph, label %._crit_edge.loopexit

._crit_edge.loopexit:                             ; preds = %43
  %53 = icmp ugt i64 %51, 1
  %54 = load ptr, ptr getelementptr inbounds (%struct.global_stats, ptr @global, i64 0, i32 2), align 8
  tail call void @free(ptr noundef %54) #25
  %55 = load ptr, ptr getelementptr inbounds (%struct.global_stats, ptr @global, i64 0, i32 4), align 8
  tail call void @free(ptr noundef %55) #25
  %56 = load ptr, ptr @queue_header, align 8
  tail call void @free(ptr noundef %56) #25
  br i1 %53, label %.sink.split, label %60

.critedge:                                        ; preds = %29
  %57 = load ptr, ptr getelementptr inbounds (%struct.global_stats, ptr @global, i64 0, i32 2), align 8
  tail call void @free(ptr noundef %57) #25
  %58 = load ptr, ptr getelementptr inbounds (%struct.global_stats, ptr @global, i64 0, i32 4), align 8
  tail call void @free(ptr noundef %58) #25
  br label %.sink.split

.sink.split:                                      ; preds = %._crit_edge.loopexit, %.critedge
  %queue_header.sink = phi ptr [ @queue_header, %.critedge ], [ @multi_queue_header, %._crit_edge.loopexit ]
  %59 = load ptr, ptr %queue_header.sink, align 8
  tail call void @free(ptr noundef %59) #25
  br label %60

60:                                               ; preds = %.sink.split, %._crit_edge.loopexit
  %61 = load ptr, ptr @clamd_header, align 8
  tail call void @free(ptr noundef %61) #25
  %.b = load i1, ptr @normal_exit, align 4
  br i1 %.b, label %82, label %62

62:                                               ; preds = %60
  %63 = load ptr, ptr @stderr, align 8
  %64 = tail call i64 @fwrite(ptr nonnull @.str.6, i64 28, i64 1, ptr %63) #28
  %65 = load ptr, ptr @exit_reason, align 8
  %.not15 = icmp eq ptr %65, null
  br i1 %.not15, label %69, label %66

66:                                               ; preds = %62
  %67 = load ptr, ptr @stderr, align 8
  %68 = tail call i32 (ptr, ptr, ...) @fprintf(ptr noundef %67, ptr noundef nonnull @.str.7, ptr noundef nonnull %65) #31
  br label %69

69:                                               ; preds = %66, %62
  %70 = load ptr, ptr @exit_func, align 8
  %.not16 = icmp eq ptr %70, null
  br i1 %.not16, label %74, label %71

71:                                               ; preds = %69
  %72 = load ptr, ptr @stderr, align 8
  %73 = tail call i32 (ptr, ptr, ...) @fprintf(ptr noundef %72, ptr noundef nonnull @.str.8, ptr noundef nonnull %70) #31
  br label %74

74:                                               ; preds = %71, %69
  %75 = load i32, ptr @exit_line, align 4
  %.not17 = icmp eq i32 %75, 0
  br i1 %.not17, label %79, label %76

76:                                               ; preds = %74
  %77 = load ptr, ptr @stderr, align 8
  %78 = tail call i32 (ptr, ptr, ...) @fprintf(ptr noundef %77, ptr noundef nonnull @.str.9, i32 noundef %75) #31
  br label %79

79:                                               ; preds = %76, %74
  %80 = load ptr, ptr @stderr, align 8
  %81 = tail call i32 @fputc(i32 noundef 10, ptr noundef %80)
  br label %82

82:                                               ; preds = %79, %60
  ret void
}